target datalayout = "e-m:e-p270:32:32-p271:32:32-p272:64:64-i64:64-i128:128-f80:128-n8:16:32:64-S128"
target triple = "x86_64-pc-linux-gnu"

%struct.zlentry = type { i32, i32, i32, i32, i32, i8, ptr }

@.str.1 = private unnamed_addr constant [10 x i8] c"ziplist.c\00", align 1
@.str.14 = private unnamed_addr constant [36 x i8] c"zipEntrySafe(zl, zlbytes, p, &e, 1)\00", align 1
@.str.34 = private unnamed_addr constant [16 x i8] c"e->lensize != 0\00", align 1

; Function Attrs: inlinehint nounwind uwtable
define internal void @zipEntry(ptr noundef %0, ptr noundef %1) #8 {
  %3 = alloca ptr, align 8
  %4 = alloca ptr, align 8
  store ptr %0, ptr %3, align 8, !tbaa !5
  store ptr %1, ptr %4, align 8, !tbaa !29
  br label %5

5:                                                ; preds = %2
  br label %6

6:                                                ; preds = %5
  %7 = load ptr, ptr %3, align 8, !tbaa !5
  %8 = getelementptr inbounds i8, ptr %7, i64 0
  %9 = load i8, ptr %8, align 1, !tbaa !14
  %10 = zext i8 %9 to i32
  %11 = icmp slt i32 %10, 254
  br i1 %11, label %12, label %15

12:                                               ; preds = %6
  %13 = load ptr, ptr %4, align 8, !tbaa !29
  %14 = getelementptr inbounds nuw %struct.zlentry, ptr %13, i32 0, i32 0
  store i32 1, ptr %14, align 8, !tbaa !25
  br label %18

15:                                               ; preds = %6
  %16 = load ptr, ptr %4, align 8, !tbaa !29
  %17 = getelementptr inbounds nuw %struct.zlentry, ptr %16, i32 0, i32 0
  store i32 5, ptr %17, align 8, !tbaa !25
  br label %18

18:                                               ; preds = %15, %12
  br label %19

19:                                               ; preds = %18
  %20 = load ptr, ptr %4, align 8, !tbaa !29
  %21 = getelementptr inbounds nuw %struct.zlentry, ptr %20, i32 0, i32 0
  %22 = load i32, ptr %21, align 8, !tbaa !25
  %23 = icmp eq i32 %22, 1
  br i1 %23, label %24, label %31

24:                                               ; preds = %19
  %25 = load ptr, ptr %3, align 8, !tbaa !5
  %26 = getelementptr inbounds i8, ptr %25, i64 0
  %27 = load i8, ptr %26, align 1, !tbaa !14
  %28 = zext i8 %27 to i32
  %29 = load ptr, ptr %4, align 8, !tbaa !29
  %30 = getelementptr inbounds nuw %struct.zlentry, ptr %29, i32 0, i32 1
  store i32 %28, ptr %30, align 4, !tbaa !24
  br label %56

31:                                               ; preds = %19
  %32 = load ptr, ptr %3, align 8, !tbaa !5
  %33 = getelementptr inbounds i8, ptr %32, i64 4
  %34 = load i8, ptr %33, align 1, !tbaa !14
  %35 = zext i8 %34 to i32
  %36 = shl i32 %35, 24
  %37 = load ptr, ptr %3, align 8, !tbaa !5
  %38 = getelementptr inbounds i8, ptr %37, i64 3
  %39 = load i8, ptr %38, align 1, !tbaa !14
  %40 = zext i8 %39 to i32
  %41 = shl i32 %40, 16
  %42 = or i32 %36, %41
  %43 = load ptr, ptr %3, align 8, !tbaa !5
  %44 = getelementptr inbounds i8, ptr %43, i64 2
  %45 = load i8, ptr %44, align 1, !tbaa !14
  %46 = zext i8 %45 to i32
  %47 = shl i32 %46, 8
  %48 = or i32 %42, %47
  %49 = load ptr, ptr %3, align 8, !tbaa !5
  %50 = getelementptr inbounds i8, ptr %49, i64 1
  %51 = load i8, ptr %50, align 1, !tbaa !14
  %52 = zext i8 %51 to i32
  %53 = or i32 %48, %52
  %54 = load ptr, ptr %4, align 8, !tbaa !29
  %55 = getelementptr inbounds nuw %struct.zlentry, ptr %54, i32 0, i32 1
  store i32 %53, ptr %55, align 4, !tbaa !24
  br label %56

56:                                               ; preds = %31, %24
  br label %57

57:                                               ; preds = %56
  br label %58

58:                                               ; preds = %57
  %59 = load ptr, ptr %3, align 8, !tbaa !5
  %60 = load ptr, ptr %4, align 8, !tbaa !29
  %61 = getelementptr inbounds nuw %struct.zlentry, ptr %60, i32 0, i32 0
  %62 = load i32, ptr %61, align 8, !tbaa !25
  %63 = zext i32 %62 to i64
  %64 = getelementptr inbounds nuw i8, ptr %59, i64 %63
  %65 = getelementptr inbounds i8, ptr %64, i64 0
  %66 = load i8, ptr %65, align 1, !tbaa !14
  %67 = load ptr, ptr %4, align 8, !tbaa !29
  %68 = getelementptr inbounds nuw %struct.zlentry, ptr %67, i32 0, i32 5
  store i8 %66, ptr %68, align 4, !tbaa !31
  %69 = load ptr, ptr %4, align 8, !tbaa !29
  %70 = getelementptr inbounds nuw %struct.zlentry, ptr %69, i32 0, i32 5
  %71 = load i8, ptr %70, align 4, !tbaa !31
  %72 = zext i8 %71 to i32
  %73 = icmp slt i32 %72, 192
  br i1 %73, label %74, label %81

74:                                               ; preds = %58
  %75 = load ptr, ptr %4, align 8, !tbaa !29
  %76 = getelementptr inbounds nuw %struct.zlentry, ptr %75, i32 0, i32 5
  %77 = load i8, ptr %76, align 4, !tbaa !31
  %78 = zext i8 %77 to i32
  %79 = and i32 %78, 192
  %80 = trunc i32 %79 to i8
  store i8 %80, ptr %76, align 4, !tbaa !31
  br label %81

81:                                               ; preds = %74, %58
  br label %82

82:                                               ; preds = %81
  br label %83

83:                                               ; preds = %82
  %84 = load ptr, ptr %4, align 8, !tbaa !29
  %85 = getelementptr inbounds nuw %struct.zlentry, ptr %84, i32 0, i32 5
  %86 = load i8, ptr %85, align 4, !tbaa !31
  %87 = zext i8 %86 to i32
  %88 = icmp slt i32 %87, 192
  br i1 %88, label %89, label %203

89:                                               ; preds = %83
  %90 = load ptr, ptr %4, align 8, !tbaa !29
  %91 = getelementptr inbounds nuw %struct.zlentry, ptr %90, i32 0, i32 5
  %92 = load i8, ptr %91, align 4, !tbaa !31
  %93 = zext i8 %92 to i32
  %94 = icmp eq i32 %93, 0
  br i1 %94, label %95, label %110

95:                                               ; preds = %89
  %96 = load ptr, ptr %4, align 8, !tbaa !29
  %97 = getelementptr inbounds nuw %struct.zlentry, ptr %96, i32 0, i32 2
  store i32 1, ptr %97, align 8, !tbaa !32
  %98 = load ptr, ptr %3, align 8, !tbaa !5
  %99 = load ptr, ptr %4, align 8, !tbaa !29
  %100 = getelementptr inbounds nuw %struct.zlentry, ptr %99, i32 0, i32 0
  %101 = load i32, ptr %100, align 8, !tbaa !25
  %102 = zext i32 %101 to i64
  %103 = getelementptr inbounds nuw i8, ptr %98, i64 %102
  %104 = getelementptr inbounds i8, ptr %103, i64 0
  %105 = load i8, ptr %104, align 1, !tbaa !14
  %106 = zext i8 %105 to i32
  %107 = and i32 %106, 63
  %108 = load ptr, ptr %4, align 8, !tbaa !29
  %109 = getelementptr inbounds nuw %struct.zlentry, ptr %108, i32 0, i32 3
  store i32 %107, ptr %109, align 4, !tbaa !23
  br label %202

110:                                              ; preds = %89
  %111 = load ptr, ptr %4, align 8, !tbaa !29
  %112 = getelementptr inbounds nuw %struct.zlentry, ptr %111, i32 0, i32 5
  %113 = load i8, ptr %112, align 4, !tbaa !31
  %114 = zext i8 %113 to i32
  %115 = icmp eq i32 %114, 64
  br i1 %115, label %116, label %142

116:                                              ; preds = %110
  %117 = load ptr, ptr %4, align 8, !tbaa !29
  %118 = getelementptr inbounds nuw %struct.zlentry, ptr %117, i32 0, i32 2
  store i32 2, ptr %118, align 8, !tbaa !32
  %119 = load ptr, ptr %3, align 8, !tbaa !5
  %120 = load ptr, ptr %4, align 8, !tbaa !29
  %121 = getelementptr inbounds nuw %struct.zlentry, ptr %120, i32 0, i32 0
  %122 = load i32, ptr %121, align 8, !tbaa !25
  %123 = zext i32 %122 to i64
  %124 = getelementptr inbounds nuw i8, ptr %119, i64 %123
  %125 = getelementptr inbounds i8, ptr %124, i64 0
  %126 = load i8, ptr %125, align 1, !tbaa !14
  %127 = zext i8 %126 to i32
  %128 = and i32 %127, 63
  %129 = shl i32 %128, 8
  %130 = load ptr, ptr %3, align 8, !tbaa !5
  %131 = load ptr, ptr %4, align 8, !tbaa !29
  %132 = getelementptr inbounds nuw %struct.zlentry, ptr %131, i32 0, i32 0
  %133 = load i32, ptr %132, align 8, !tbaa !25
  %134 = zext i32 %133 to i64
  %135 = getelementptr inbounds nuw i8, ptr %130, i64 %134
  %136 = getelementptr inbounds i8, ptr %135, i64 1
  %137 = load i8, ptr %136, align 1, !tbaa !14
  %138 = zext i8 %137 to i32
  %139 = or i32 %129, %138
  %140 = load ptr, ptr %4, align 8, !tbaa !29
  %141 = getelementptr inbounds nuw %struct.zlentry, ptr %140, i32 0, i32 3
  store i32 %139, ptr %141, align 4, !tbaa !23
  br label %201

142:                                              ; preds = %110
  %143 = load ptr, ptr %4, align 8, !tbaa !29
  %144 = getelementptr inbounds nuw %struct.zlentry, ptr %143, i32 0, i32 5
  %145 = load i8, ptr %144, align 4, !tbaa !31
  %146 = zext i8 %145 to i32
  %147 = icmp eq i32 %146, 128
  br i1 %147, label %148, label %195

148:                                              ; preds = %142
  %149 = load ptr, ptr %4, align 8, !tbaa !29
  %150 = getelementptr inbounds nuw %struct.zlentry, ptr %149, i32 0, i32 2
  store i32 5, ptr %150, align 8, !tbaa !32
  %151 = load ptr, ptr %3, align 8, !tbaa !5
  %152 = load ptr, ptr %4, align 8, !tbaa !29
  %153 = getelementptr inbounds nuw %struct.zlentry, ptr %152, i32 0, i32 0
  %154 = load i32, ptr %153, align 8, !tbaa !25
  %155 = zext i32 %154 to i64
  %156 = getelementptr inbounds nuw i8, ptr %151, i64 %155
  %157 = getelementptr inbounds i8, ptr %156, i64 1
  %158 = load i8, ptr %157, align 1, !tbaa !14
  %159 = zext i8 %158 to i32
  %160 = shl i32 %159, 24
  %161 = load ptr, ptr %3, align 8, !tbaa !5
  %162 = load ptr, ptr %4, align 8, !tbaa !29
  %163 = getelementptr inbounds nuw %struct.zlentry, ptr %162, i32 0, i32 0
  %164 = load i32, ptr %163, align 8, !tbaa !25
  %165 = zext i32 %164 to i64
  %166 = getelementptr inbounds nuw i8, ptr %161, i64 %165
  %167 = getelementptr inbounds i8, ptr %166, i64 2
  %168 = load i8, ptr %167, align 1, !tbaa !14
  %169 = zext i8 %168 to i32
  %170 = shl i32 %169, 16
  %171 = or i32 %160, %170
  %172 = load ptr, ptr %3, align 8, !tbaa !5
  %173 = load ptr, ptr %4, align 8, !tbaa !29
  %174 = getelementptr inbounds nuw %struct.zlentry, ptr %173, i32 0, i32 0
  %175 = load i32, ptr %174, align 8, !tbaa !25
  %176 = zext i32 %175 to i64
  %177 = getelementptr inbounds nuw i8, ptr %172, i64 %176
  %178 = getelementptr inbounds i8, ptr %177, i64 3
  %179 = load i8, ptr %178, align 1, !tbaa !14
  %180 = zext i8 %179 to i32
  %181 = shl i32 %180, 8
  %182 = or i32 %171, %181
  %183 = load ptr, ptr %3, align 8, !tbaa !5
  %184 = load ptr, ptr %4, align 8, !tbaa !29
  %185 = getelementptr inbounds nuw %struct.zlentry, ptr %184, i32 0, i32 0
  %186 = load i32, ptr %185, align 8, !tbaa !25
  %187 = zext i32 %186 to i64
  %188 = getelementptr inbounds nuw i8, ptr %183, i64 %187
  %189 = getelementptr inbounds i8, ptr %188, i64 4
  %190 = load i8, ptr %189, align 1, !tbaa !14
  %191 = zext i8 %190 to i32
  %192 = or i32 %182, %191
  %193 = load ptr, ptr %4, align 8, !tbaa !29
  %194 = getelementptr inbounds nuw %struct.zlentry, ptr %193, i32 0, i32 3
  store i32 %192, ptr %194, align 4, !tbaa !23
  br label %200

195:                                              ; preds = %142
  %196 = load ptr, ptr %4, align 8, !tbaa !29
  %197 = getelementptr inbounds nuw %struct.zlentry, ptr %196, i32 0, i32 2
  store i32 0, ptr %197, align 8, !tbaa !32
  %198 = load ptr, ptr %4, align 8, !tbaa !29
  %199 = getelementptr inbounds nuw %struct.zlentry, ptr %198, i32 0, i32 3
  store i32 0, ptr %199, align 4, !tbaa !23
  br label %200

200:                                              ; preds = %195, %148
  br label %201

201:                                              ; preds = %200, %116
  br label %202

202:                                              ; preds = %201, %95
  br label %276

203:                                              ; preds = %83
  %204 = load ptr, ptr %4, align 8, !tbaa !29
  %205 = getelementptr inbounds nuw %struct.zlentry, ptr %204, i32 0, i32 2
  store i32 1, ptr %205, align 8, !tbaa !32
  %206 = load ptr, ptr %4, align 8, !tbaa !29
  %207 = getelementptr inbounds nuw %struct.zlentry, ptr %206, i32 0, i32 5
  %208 = load i8, ptr %207, align 4, !tbaa !31
  %209 = zext i8 %208 to i32
  %210 = icmp eq i32 %209, 254
  br i1 %210, label %211, label %214

211:                                              ; preds = %203
  %212 = load ptr, ptr %4, align 8, !tbaa !29
  %213 = getelementptr inbounds nuw %struct.zlentry, ptr %212, i32 0, i32 3
  store i32 1, ptr %213, align 4, !tbaa !23
  br label %275

214:                                              ; preds = %203
  %215 = load ptr, ptr %4, align 8, !tbaa !29
  %216 = getelementptr inbounds nuw %struct.zlentry, ptr %215, i32 0, i32 5
  %217 = load i8, ptr %216, align 4, !tbaa !31
  %218 = zext i8 %217 to i32
  %219 = icmp eq i32 %218, 192
  br i1 %219, label %220, label %223

220:                                              ; preds = %214
  %221 = load ptr, ptr %4, align 8, !tbaa !29
  %222 = getelementptr inbounds nuw %struct.zlentry, ptr %221, i32 0, i32 3
  store i32 2, ptr %222, align 4, !tbaa !23
  br label %274

223:                                              ; preds = %214
  %224 = load ptr, ptr %4, align 8, !tbaa !29
  %225 = getelementptr inbounds nuw %struct.zlentry, ptr %224, i32 0, i32 5
  %226 = load i8, ptr %225, align 4, !tbaa !31
  %227 = zext i8 %226 to i32
  %228 = icmp eq i32 %227, 240
  br i1 %228, label %229, label %232

229:                                              ; preds = %223
  %230 = load ptr, ptr %4, align 8, !tbaa !29
  %231 = getelementptr inbounds nuw %struct.zlentry, ptr %230, i32 0, i32 3
  store i32 3, ptr %231, align 4, !tbaa !23
  br label %273

232:                                              ; preds = %223
  %233 = load ptr, ptr %4, align 8, !tbaa !29
  %234 = getelementptr inbounds nuw %struct.zlentry, ptr %233, i32 0, i32 5
  %235 = load i8, ptr %234, align 4, !tbaa !31
  %236 = zext i8 %235 to i32
  %237 = icmp eq i32 %236, 208
  br i1 %237, label %238, label %241

238:                                              ; preds = %232
  %239 = load ptr, ptr %4, align 8, !tbaa !29
  %240 = getelementptr inbounds nuw %struct.zlentry, ptr %239, i32 0, i32 3
  store i32 4, ptr %240, align 4, !tbaa !23
  br label %272

241:                                              ; preds = %232
  %242 = load ptr, ptr %4, align 8, !tbaa !29
  %243 = getelementptr inbounds nuw %struct.zlentry, ptr %242, i32 0, i32 5
  %244 = load i8, ptr %243, align 4, !tbaa !31
  %245 = zext i8 %244 to i32
  %246 = icmp eq i32 %245, 224
  br i1 %246, label %247, label %250

247:                                              ; preds = %241
  %248 = load ptr, ptr %4, align 8, !tbaa !29
  %249 = getelementptr inbounds nuw %struct.zlentry, ptr %248, i32 0, i32 3
  store i32 8, ptr %249, align 4, !tbaa !23
  br label %271

250:                                              ; preds = %241
  %251 = load ptr, ptr %4, align 8, !tbaa !29
  %252 = getelementptr inbounds nuw %struct.zlentry, ptr %251, i32 0, i32 5
  %253 = load i8, ptr %252, align 4, !tbaa !31
  %254 = zext i8 %253 to i32
  %255 = icmp sge i32 %254, 241
  br i1 %255, label %256, label %265

256:                                              ; preds = %250
  %257 = load ptr, ptr %4, align 8, !tbaa !29
  %258 = getelementptr inbounds nuw %struct.zlentry, ptr %257, i32 0, i32 5
  %259 = load i8, ptr %258, align 4, !tbaa !31
  %260 = zext i8 %259 to i32
  %261 = icmp sle i32 %260, 253
  br i1 %261, label %262, label %265

262:                                              ; preds = %256
  %263 = load ptr, ptr %4, align 8, !tbaa !29
  %264 = getelementptr inbounds nuw %struct.zlentry, ptr %263, i32 0, i32 3
  store i32 0, ptr %264, align 4, !tbaa !23
  br label %270

265:                                              ; preds = %256, %250
  %266 = load ptr, ptr %4, align 8, !tbaa !29
  %267 = getelementptr inbounds nuw %struct.zlentry, ptr %266, i32 0, i32 3
  store i32 0, ptr %267, align 4, !tbaa !23
  %268 = load ptr, ptr %4, align 8, !tbaa !29
  %269 = getelementptr inbounds nuw %struct.zlentry, ptr %268, i32 0, i32 2
  store i32 0, ptr %269, align 8, !tbaa !32
  br label %270

270:                                              ; preds = %265, %262
  br label %271

271:                                              ; preds = %270, %247
  br label %272

272:                                              ; preds = %271, %238
  br label %273

273:                                              ; preds = %272, %229
  br label %274

274:                                              ; preds = %273, %220
  br label %275

275:                                              ; preds = %274, %211
  br label %276

276:                                              ; preds = %275, %202
  br label %277

277:                                              ; preds = %276
  %278 = load ptr, ptr %4, align 8, !tbaa !29
  %279 = getelementptr inbounds nuw %struct.zlentry, ptr %278, i32 0, i32 2
  %280 = load i32, ptr %279, align 8, !tbaa !32
  %281 = icmp ne i32 %280, 0
  %282 = xor i1 %281, true
  %283 = xor i1 %282, true
  %284 = zext i1 %283 to i32
  %285 = sext i32 %284 to i64
  %286 = call i64 @llvm.expect.i64(i64 %285, i64 1)
  %287 = icmp ne i64 %286, 0
  br i1 %287, label %288, label %289

288:                                              ; preds = %277
  br label %291

289:                                              ; preds = %277
  call void @_serverAssert(ptr noundef @.str.34, ptr noundef @.str.1, i32 noundef 619)
  call void @abort() #12
  unreachable

290:                                              ; No predecessors!
  br label %291

291:                                              ; preds = %290, %288
  %292 = load ptr, ptr %4, align 8, !tbaa !29
  %293 = getelementptr inbounds nuw %struct.zlentry, ptr %292, i32 0, i32 0
  %294 = load i32, ptr %293, align 8, !tbaa !25
  %295 = load ptr, ptr %4, align 8, !tbaa !29
  %296 = getelementptr inbounds nuw %struct.zlentry, ptr %295, i32 0, i32 2
  %297 = load i32, ptr %296, align 8, !tbaa !32
  %298 = add i32 %294, %297
  %299 = load ptr, ptr %4, align 8, !tbaa !29
  %300 = getelementptr inbounds nuw %struct.zlentry, ptr %299, i32 0, i32 4
  store i32 %298, ptr %300, align 8, !tbaa !21
  %301 = load ptr, ptr %3, align 8, !tbaa !5
  %302 = load ptr, ptr %4, align 8, !tbaa !29
  %303 = getelementptr inbounds nuw %struct.zlentry, ptr %302, i32 0, i32 6
  store ptr %301, ptr %303, align 8, !tbaa !33
  ret void
}

; Function Attrs: inlinehint nounwind uwtable
define internal void @zipAssertValidEntry(ptr noundef %0, i64 noundef %1, ptr noundef %2) #8 {
  %4 = alloca ptr, align 8
  %5 = alloca i64, align 8
  %6 = alloca ptr, align 8
  %7 = alloca %struct.zlentry, align 8
  store ptr %0, ptr %4, align 8, !tbaa !5
  store i64 %1, ptr %5, align 8, !tbaa !10
  store ptr %2, ptr %6, align 8, !tbaa !5
  call void @llvm.lifetime.start.p0(i64 32, ptr %7) #11
  %8 = load ptr, ptr %4, align 8, !tbaa !5
  %9 = load i64, ptr %5, align 8, !tbaa !10
  %10 = load ptr, ptr %6, align 8, !tbaa !5
  %11 = call i32 @zipEntrySafe(ptr noundef %8, i64 noundef %9, ptr noundef %10, ptr noundef %7, i32 noundef 1)
  %12 = icmp ne i32 %11, 0
  %13 = xor i1 %12, true
  %14 = xor i1 %13, true
  %15 = zext i1 %14 to i32
  %16 = sext i32 %15 to i64
  %17 = call i64 @llvm.expect.i64(i64 %16, i64 1)
  %18 = icmp ne i64 %17, 0
  br i1 %18, label %19, label %20

19:                                               ; preds = %3
  br label %22

20:                                               ; preds = %3
  call void @_serverAssert(ptr noundef @.str.14, ptr noundef @.str.1, i32 noundef 707)
  call void @abort() #12
  unreachable

21:                                               ; No predecessors!
  br label %22

22:                                               ; preds = %21, %19
  call void @llvm.lifetime.end.p0(i64 32, ptr %7) #11
  ret void
}

; Function Attrs: inlinehint nounwind uwtable
define internal i32 @zipRawEntryLength(ptr noundef %0) #8 {
  %2 = alloca ptr, align 8
  %3 = alloca %struct.zlentry, align 8
  store ptr %0, ptr %2, align 8, !tbaa !5
  call void @llvm.lifetime.start.p0(i64 32, ptr %3) #11
  %4 = load ptr, ptr %2, align 8, !tbaa !5
  call void @zipEntry(ptr noundef %4, ptr noundef %3)
  %5 = getelementptr inbounds nuw %struct.zlentry, ptr %3, i32 0, i32 4
  %6 = load i32, ptr %5, align 8, !tbaa !21
  %7 = getelementptr inbounds nuw %struct.zlentry, ptr %3, i32 0, i32 3
  %8 = load i32, ptr %7, align 4, !tbaa !23
  %9 = add i32 %6, %8
  call void @llvm.lifetime.end.p0(i64 32, ptr %3) #11
  ret i32 %9
}

; Function Attrs: nounwind uwtable
define dso_local ptr @ziplistNext(ptr noundef %0, ptr noundef %1) #0 {
  %3 = alloca ptr, align 8
  %4 = alloca ptr, align 8
  %5 = alloca ptr, align 8
  %6 = alloca i64, align 8
  %7 = alloca i32, align 4
  store ptr %0, ptr %4, align 8, !tbaa !5
  store ptr %1, ptr %5, align 8, !tbaa !5
  call void @llvm.lifetime.start.p0(i64 8, ptr %6) #11
  %8 = load ptr, ptr %4, align 8, !tbaa !5
  %9 = load i32, ptr %8, align 4, !tbaa !12
  %10 = zext i32 %9 to i64
  store i64 %10, ptr %6, align 8, !tbaa !10
  %11 = load ptr, ptr %5, align 8, !tbaa !5
  %12 = getelementptr inbounds i8, ptr %11, i64 0
  %13 = load i8, ptr %12, align 1, !tbaa !14
  %14 = zext i8 %13 to i32
  %15 = icmp eq i32 %14, 255
  br i1 %15, label %16, label %17

16:                                               ; preds = %2
  store ptr null, ptr %3, align 8
  store i32 1, ptr %7, align 4
  br label %34

17:                                               ; preds = %2
  %18 = load ptr, ptr %5, align 8, !tbaa !5
  %19 = call i32 @zipRawEntryLength(ptr noundef %18)
  %20 = load ptr, ptr %5, align 8, !tbaa !5
  %21 = zext i32 %19 to i64
  %22 = getelementptr inbounds nuw i8, ptr %20, i64 %21
  store ptr %22, ptr %5, align 8, !tbaa !5
  %23 = load ptr, ptr %5, align 8, !tbaa !5
  %24 = getelementptr inbounds i8, ptr %23, i64 0
  %25 = load i8, ptr %24, align 1, !tbaa !14
  %26 = zext i8 %25 to i32
  %27 = icmp eq i32 %26, 255
  br i1 %27, label %28, label %29

28:                                               ; preds = %17
  store ptr null, ptr %3, align 8
  store i32 1, ptr %7, align 4
  br label %34

29:                                               ; preds = %17
  %30 = load ptr, ptr %4, align 8, !tbaa !5
  %31 = load i64, ptr %6, align 8, !tbaa !10
  %32 = load ptr, ptr %5, align 8, !tbaa !5
  call void @zipAssertValidEntry(ptr noundef %30, i64 noundef %31, ptr noundef %32)
  %33 = load ptr, ptr %5, align 8, !tbaa !5
  store ptr %33, ptr %3, align 8
  store i32 1, ptr %7, align 4
  br label %34

34:                                               ; preds = %29, %28, %16
  call void @llvm.lifetime.end.p0(i64 8, ptr %6) #11
  %35 = load ptr, ptr %3, align 8
  ret ptr %35
}