; Function Attrs: nounwind uwtable
define dso_local noundef ptr @ziplistNext(ptr noundef captures(address) %0, ptr noundef %1) local_unnamed_addr #5 {
  %3 = alloca %struct.zlentry, align 8
  %4 = load i32, ptr %0, align 4, !tbaa !5
  %5 = zext i32 %4 to i64
  %6 = load i8, ptr %1, align 1, !tbaa !9
  %7 = icmp eq i8 %6, -1
  br i1 %7, label %63, label %8

8:                                                ; preds = %2
  %.not = icmp eq i8 %6, -2
  %..i.i = select i1 %.not, i32 5, i32 1
  %9 = zext nneg i32 %..i.i to i64
  %10 = getelementptr inbounds nuw i8, ptr %1, i64 %9
  %11 = load i8, ptr %10, align 1, !tbaa !9
  %12 = icmp ult i8 %11, -64
  br i1 %12, label %13, label %46, !prof !20

13:                                               ; preds = %8
  %14 = lshr i8 %11, 6
  %15 = xor i8 %14, 2
  switch i8 %15, label %default.unreachable [
    i8 2, label %16
    i8 3, label %19
    i8 0, label %27
    i8 1, label %53
  ]

16:                                               ; preds = %13
  %17 = and i8 %11, 63
  %18 = zext nneg i8 %17 to i32
  br label %zipRawEntryLength.exit

19:                                               ; preds = %13
  %20 = and i8 %11, 63
  %21 = zext nneg i8 %20 to i32
  %22 = shl nuw nsw i32 %21, 8
  %23 = getelementptr inbounds nuw i8, ptr %10, i64 1
  %24 = load i8, ptr %23, align 1, !tbaa !9
  %25 = zext i8 %24 to i32
  %26 = or disjoint i32 %22, %25
  br label %zipRawEntryLength.exit

27:                                               ; preds = %13
  %28 = getelementptr inbounds nuw i8, ptr %10, i64 1
  %29 = load i8, ptr %28, align 1, !tbaa !9
  %30 = zext i8 %29 to i32
  %31 = shl nuw i32 %30, 24
  %32 = getelementptr inbounds nuw i8, ptr %10, i64 2
  %33 = load i8, ptr %32, align 1, !tbaa !9
  %34 = zext i8 %33 to i32
  %35 = shl nuw nsw i32 %34, 16
  %36 = or disjoint i32 %35, %31
  %37 = getelementptr inbounds nuw i8, ptr %10, i64 3
  %38 = load i8, ptr %37, align 1, !tbaa !9
  %39 = zext i8 %38 to i32
  %40 = shl nuw nsw i32 %39, 8
  %41 = or disjoint i32 %36, %40
  %42 = getelementptr inbounds nuw i8, ptr %10, i64 4
  %43 = load i8, ptr %42, align 1, !tbaa !9
  %44 = zext i8 %43 to i32
  %45 = or disjoint i32 %41, %44
  br label %zipRawEntryLength.exit

default.unreachable:                              ; preds = %13
  unreachable

46:                                               ; preds = %8
  switch i8 %11, label %51 [
    i8 -2, label %zipRawEntryLength.exit
    i8 -64, label %47
    i8 -16, label %48
    i8 -48, label %49
    i8 -32, label %50
  ]

47:                                               ; preds = %46
  br label %zipRawEntryLength.exit

48:                                               ; preds = %46
  br label %zipRawEntryLength.exit

49:                                               ; preds = %46
  br label %zipRawEntryLength.exit

50:                                               ; preds = %46
  br label %zipRawEntryLength.exit

51:                                               ; preds = %46
  %52 = add nsw i8 %11, 1
  %or.cond.i.i = icmp ult i8 %52, -14
  br i1 %or.cond.i.i, label %53, label %zipRawEntryLength.exit, !prof !20

53:                                               ; preds = %51, %13
  tail call void @_serverAssert(ptr noundef nonnull @.str.34, ptr noundef nonnull @.str.1, i32 noundef 619) #17
  tail call void @abort() #18
  unreachable

zipRawEntryLength.exit:                           ; preds = %16, %19, %27, %46, %47, %48, %49, %50, %51
  %.sroa.10.0.i = phi i32 [ 0, %51 ], [ %26, %19 ], [ %45, %27 ], [ %18, %16 ], [ 2, %47 ], [ 4, %49 ], [ 8, %50 ], [ 3, %48 ], [ 1, %46 ]
  %.ph.i.i = phi i32 [ 1, %51 ], [ 2, %19 ], [ 5, %27 ], [ 1, %16 ], [ 1, %47 ], [ 1, %49 ], [ 1, %50 ], [ 1, %48 ], [ 1, %46 ]
  %54 = add i32 %.sroa.10.0.i, %..i.i
  %55 = add i32 %54, %.ph.i.i
  %56 = zext i32 %55 to i64
  %57 = getelementptr inbounds nuw i8, ptr %1, i64 %56
  %58 = load i8, ptr %57, align 1, !tbaa !9
  %59 = icmp eq i8 %58, -1
  br i1 %59, label %63, label %60

60:                                               ; preds = %zipRawEntryLength.exit
  call void @llvm.lifetime.start.p0(i64 32, ptr nonnull %3) #17
  %61 = call fastcc i32 @zipEntrySafe(ptr noundef nonnull %0, i64 noundef range(i64 0, 4294967296) %5, ptr noundef nonnull %57, ptr noundef %3, i32 noundef 1)
  %.not.i = icmp eq i32 %61, 0
  br i1 %.not.i, label %62, label %zipAssertValidEntry.exit, !prof !24

62:                                               ; preds = %60
  tail call void @_serverAssert(ptr noundef nonnull @.str.14, ptr noundef nonnull @.str.1, i32 noundef 707) #17
  tail call void @abort() #18
  unreachable

zipAssertValidEntry.exit:                         ; preds = %60
  call void @llvm.lifetime.end.p0(i64 32, ptr nonnull %3) #17
  br label %63

63:                                               ; preds = %zipRawEntryLength.exit, %2, %zipAssertValidEntry.exit
  %.0 = phi ptr [ %57, %zipAssertValidEntry.exit ], [ null, %2 ], [ null, %zipRawEntryLength.exit ]
  ret ptr %.0
}